target datalayout = "e-m:e-p270:32:32-p271:32:32-p272:64:64-i64:64-i128:128-f80:128-n8:16:32:64-S128"
target triple = "x86_64-pc-linux-gnu"

%struct.moveGroupType = type { i32, [7 x i32], [7 x i32], [7 x i32], [7 x i32] }
%struct.deal = type { i32, i32, [3 x i32], [3 x i32], [4 x [4 x i32]] }

@groupData = external global [8192 x %struct.moveGroupType], align 16

; Function Attrs: mustprogress nounwind uwtable
define noundef i32 @_ZNK9Scheduler6FanoutERK4deal(ptr noundef nonnull align 8 dereferenceable(43416) %0, ptr noundef nonnull align 4 dereferenceable(96) %1) #5 align 2 {
  %3 = alloca ptr, align 8
  %4 = alloca ptr, align 8
  %5 = alloca i32, align 4
  %6 = alloca i32, align 4
  %7 = alloca i32, align 4
  %8 = alloca i32, align 4
  %9 = alloca i32, align 4
  %10 = alloca i32, align 4
  store ptr %0, ptr %3, align 8
  store ptr %1, ptr %4, align 8
  store i32 0, ptr %5, align 4
  store i32 0, ptr %9, align 4
  br label %11

11:                                               ; preds = %55, %2
  %12 = load i32, ptr %9, align 4
  %13 = icmp slt i32 %12, 4
  br i1 %13, label %14, label %58

14:                                               ; preds = %11
  store i32 0, ptr %6, align 4
  store i32 0, ptr %7, align 4
  store i32 0, ptr %10, align 4
  br label %15

15:                                               ; preds = %43, %14
  %16 = load i32, ptr %10, align 4
  %17 = icmp slt i32 %16, 4
  br i1 %17, label %18, label %46

18:                                               ; preds = %15
  %19 = load ptr, ptr %4, align 8
  %20 = getelementptr inbounds nuw %struct.deal, ptr %19, i32 0, i32 4
  %21 = load i32, ptr %9, align 4
  %22 = sext i32 %21 to i64
  %23 = getelementptr inbounds [4 x [4 x i32]], ptr %20, i64 0, i64 %22
  %24 = load i32, ptr %10, align 4
  %25 = sext i32 %24 to i64
  %26 = getelementptr inbounds [4 x i32], ptr %23, i64 0, i64 %25
  %27 = load i32, ptr %26, align 4
  %28 = lshr i32 %27, 2
  store i32 %28, ptr %8, align 4
  %29 = load i32, ptr %8, align 4
  %30 = sext i32 %29 to i64
  %31 = getelementptr inbounds [8192 x %struct.moveGroupType], ptr @groupData, i64 0, i64 %30
  %32 = getelementptr inbounds nuw %struct.moveGroupType, ptr %31, i32 0, i32 0
  %33 = load i32, ptr %32, align 4
  %34 = add nsw i32 %33, 1
  %35 = load i32, ptr %6, align 4
  %36 = add nsw i32 %35, %34
  store i32 %36, ptr %6, align 4
  %37 = load i32, ptr %8, align 4
  %38 = icmp eq i32 %37, 0
  br i1 %38, label %39, label %42

39:                                               ; preds = %18
  %40 = load i32, ptr %7, align 4
  %41 = add nsw i32 %40, 1
  store i32 %41, ptr %7, align 4
  br label %42

42:                                               ; preds = %39, %18
  br label %43

43:                                               ; preds = %42
  %44 = load i32, ptr %10, align 4
  %45 = add nsw i32 %44, 1
  store i32 %45, ptr %10, align 4
  br label %15, !llvm.loop !34

46:                                               ; preds = %15
  %47 = load i32, ptr %7, align 4
  %48 = load i32, ptr %6, align 4
  %49 = mul nsw i32 %47, %48
  %50 = load i32, ptr %6, align 4
  %51 = add nsw i32 %50, %49
  store i32 %51, ptr %6, align 4
  %52 = load i32, ptr %6, align 4
  %53 = load i32, ptr %5, align 4
  %54 = add nsw i32 %53, %52
  store i32 %54, ptr %5, align 4
  br label %55

55:                                               ; preds = %46
  %56 = load i32, ptr %9, align 4
  %57 = add nsw i32 %56, 1
  store i32 %57, ptr %9, align 4
  br label %11, !llvm.loop !35

58:                                               ; preds = %11
  %59 = load i32, ptr %5, align 4
  ret i32 %59
}