; Function Attrs: mustprogress nofree norecurse nosync nounwind willreturn memory(read, inaccessiblemem: none) uwtable
define noundef i32 @_ZNK9Scheduler6FanoutERK4deal(ptr nocapture noundef nonnull readnone align 8 dereferenceable(43416) %0, ptr nocapture noundef nonnull readonly align 4 dereferenceable(96) %1) local_unnamed_addr #9 align 2 {
  %3 = getelementptr inbounds nuw i8, ptr %1, i64 32
  br label %.preheader

.preheader:                                       ; preds = %2, %15
  %indvars.iv27 = phi i64 [ 0, %2 ], [ %indvars.iv.next28, %15 ]
  %.01723 = phi i32 [ 0, %2 ], [ %18, %15 ]
  br label %4

4:                                                ; preds = %.preheader, %4
  %indvars.iv = phi i64 [ 0, %.preheader ], [ %indvars.iv.next, %4 ]
  %.01821 = phi i32 [ 0, %.preheader ], [ %spec.select, %4 ]
  %.01920 = phi i32 [ 0, %.preheader ], [ %12, %4 ]
  %5 = getelementptr inbounds [4 x [4 x i32]], ptr %3, i64 0, i64 %indvars.iv27, i64 %indvars.iv
  %6 = load i32, ptr %5, align 4
  %7 = lshr i32 %6, 2
  %8 = zext nneg i32 %7 to i64
  %9 = getelementptr inbounds [8192 x %struct.moveGroupType], ptr @groupData, i64 0, i64 %8
  %10 = load i32, ptr %9, align 4
  %11 = add i32 %.01920, 1
  %12 = add i32 %11, %10
  %13 = icmp ult i32 %6, 4
  %14 = zext i1 %13 to i32
  %spec.select = add nuw nsw i32 %.01821, %14
  %indvars.iv.next = add nuw nsw i64 %indvars.iv, 1
  %exitcond.not = icmp eq i64 %indvars.iv.next, 4
  br i1 %exitcond.not, label %15, label %4, !llvm.loop !14

15:                                               ; preds = %4
  %16 = add nuw i32 %spec.select, 1
  %17 = mul i32 %16, %12
  %18 = add nsw i32 %17, %.01723
  %indvars.iv.next28 = add nuw nsw i64 %indvars.iv27, 1
  %exitcond30.not = icmp eq i64 %indvars.iv.next28, 4
  br i1 %exitcond30.not, label %19, label %.preheader, !llvm.loop !15

19:                                               ; preds = %15
  ret i32 %18
}